target datalayout = "e-m:e-p270:32:32-p271:32:32-p272:64:64-i64:64-i128:128-f80:128-n8:16:32:64-S128"
target triple = "x86_64-pc-linux-gnu"

%"class.boost::log::v2_mt_posix::attribute_value_set" = type { ptr }
%"struct.boost::log::v2_mt_posix::attribute_value_set::implementation" = type { ptr, ptr, ptr, %"class.boost::intrusive::list", ptr, ptr, [16 x %"struct.boost::log::v2_mt_posix::attribute_value_set::implementation::bucket"] }
%"class.boost::intrusive::list" = type { %"class.boost::intrusive::list_impl" }
%"class.boost::intrusive::list_impl" = type { %"struct.boost::intrusive::list_impl<boost::intrusive::derivation_value_traits<boost::log::v2_mt_posix::attribute_value_set::node, boost::log::v2_mt_posix::attribute_value_set::implementation::node_traits, boost::intrusive::normal_link>, unsigned long, true, void>::data_t" }
%"struct.boost::intrusive::list_impl<boost::intrusive::derivation_value_traits<boost::log::v2_mt_posix::attribute_value_set::node, boost::log::v2_mt_posix::attribute_value_set::implementation::node_traits, boost::intrusive::normal_link>, unsigned long, true, void>::data_t" = type { %"struct.boost::intrusive::list_impl<boost::intrusive::derivation_value_traits<boost::log::v2_mt_posix::attribute_value_set::node, boost::log::v2_mt_posix::attribute_value_set::implementation::node_traits, boost::intrusive::normal_link>, unsigned long, true, void>::root_plus_size" }
%"struct.boost::intrusive::list_impl<boost::intrusive::derivation_value_traits<boost::log::v2_mt_posix::attribute_value_set::node, boost::log::v2_mt_posix::attribute_value_set::implementation::node_traits, boost::intrusive::normal_link>, unsigned long, true, void>::root_plus_size" = type { %"struct.boost::intrusive::detail::size_holder", %"struct.boost::intrusive::detail::default_header_holder" }
%"struct.boost::intrusive::detail::size_holder" = type { i64 }
%"struct.boost::intrusive::detail::default_header_holder" = type { %"struct.boost::log::v2_mt_posix::attribute_value_set::node_base" }
%"struct.boost::log::v2_mt_posix::attribute_value_set::node_base" = type { ptr, ptr }
%"struct.boost::log::v2_mt_posix::attribute_value_set::implementation::bucket" = type { ptr, ptr }

; Function Attrs: mustprogress uwtable
define linkonce_odr hidden void @_ZN5boost3log11v2_mt_posix19attribute_value_set14implementation6freezeEv(ptr noundef nonnull align 8 dereferenceable(320) %0) #0 comdat align 2 {
  %2 = alloca ptr, align 8
  store ptr %0, ptr %2, align 8, !tbaa !3
  %3 = load ptr, ptr %2, align 8
  %4 = getelementptr inbounds nuw %"struct.boost::log::v2_mt_posix::attribute_value_set::implementation", ptr %3, i32 0, i32 0
  %5 = load ptr, ptr %4, align 8, !tbaa !32
  %6 = icmp ne ptr %5, null
  br i1 %6, label %7, label %11

7:                                                ; preds = %1
  %8 = getelementptr inbounds nuw %"struct.boost::log::v2_mt_posix::attribute_value_set::implementation", ptr %3, i32 0, i32 0
  %9 = load ptr, ptr %8, align 8, !tbaa !32
  call void @_ZN5boost3log11v2_mt_posix19attribute_value_set14implementation17freeze_nodes_fromEPNS1_13attribute_set14implementationE(ptr noundef nonnull align 8 dereferenceable(320) %3, ptr noundef %9)
  %10 = getelementptr inbounds nuw %"struct.boost::log::v2_mt_posix::attribute_value_set::implementation", ptr %3, i32 0, i32 0
  store ptr null, ptr %10, align 8, !tbaa !32
  br label %11

11:                                               ; preds = %7, %1
  %12 = getelementptr inbounds nuw %"struct.boost::log::v2_mt_posix::attribute_value_set::implementation", ptr %3, i32 0, i32 1
  %13 = load ptr, ptr %12, align 8, !tbaa !13
  %14 = icmp ne ptr %13, null
  br i1 %14, label %15, label %19

15:                                               ; preds = %11
  %16 = getelementptr inbounds nuw %"struct.boost::log::v2_mt_posix::attribute_value_set::implementation", ptr %3, i32 0, i32 1
  %17 = load ptr, ptr %16, align 8, !tbaa !13
  call void @_ZN5boost3log11v2_mt_posix19attribute_value_set14implementation17freeze_nodes_fromEPNS1_13attribute_set14implementationE(ptr noundef nonnull align 8 dereferenceable(320) %3, ptr noundef %17)
  %18 = getelementptr inbounds nuw %"struct.boost::log::v2_mt_posix::attribute_value_set::implementation", ptr %3, i32 0, i32 1
  store ptr null, ptr %18, align 8, !tbaa !13
  br label %19

19:                                               ; preds = %15, %11
  %20 = getelementptr inbounds nuw %"struct.boost::log::v2_mt_posix::attribute_value_set::implementation", ptr %3, i32 0, i32 2
  %21 = load ptr, ptr %20, align 8, !tbaa !22
  %22 = icmp ne ptr %21, null
  br i1 %22, label %23, label %27

23:                                               ; preds = %19
  %24 = getelementptr inbounds nuw %"struct.boost::log::v2_mt_posix::attribute_value_set::implementation", ptr %3, i32 0, i32 2
  %25 = load ptr, ptr %24, align 8, !tbaa !22
  call void @_ZN5boost3log11v2_mt_posix19attribute_value_set14implementation17freeze_nodes_fromEPNS1_13attribute_set14implementationE(ptr noundef nonnull align 8 dereferenceable(320) %3, ptr noundef %25)
  %26 = getelementptr inbounds nuw %"struct.boost::log::v2_mt_posix::attribute_value_set::implementation", ptr %3, i32 0, i32 2
  store ptr null, ptr %26, align 8, !tbaa !22
  br label %27

27:                                               ; preds = %23, %19
  ret void
}

; Function Attrs: mustprogress uwtable
define void @_ZN5boost3log11v2_mt_posix19attribute_value_set6freezeEv(ptr noundef nonnull align 8 dereferenceable(8) %0) #0 align 2 {
  %2 = alloca ptr, align 8
  store ptr %0, ptr %2, align 8, !tbaa !3
  %3 = load ptr, ptr %2, align 8
  %4 = getelementptr inbounds nuw %"class.boost::log::v2_mt_posix::attribute_value_set", ptr %3, i32 0, i32 0
  %5 = load ptr, ptr %4, align 8, !tbaa !9
  call void @_ZN5boost3log11v2_mt_posix19attribute_value_set14implementation6freezeEv(ptr noundef nonnull align 8 dereferenceable(320) %5)
  ret void
}