; Function Attrs: mustprogress uwtable
define void @_ZN5boost3log11v2_mt_posix19attribute_value_set6freezeEv(ptr nocapture noundef nonnull readonly align 8 dereferenceable(8) %0) local_unnamed_addr #0 align 2 {
  %2 = load ptr, ptr %0, align 8, !tbaa !21
  %3 = load ptr, ptr %2, align 8, !tbaa !26
  %.not.i = icmp eq ptr %3, null
  br i1 %.not.i, label %5, label %4

4:                                                ; preds = %1
  tail call void @_ZN5boost3log11v2_mt_posix19attribute_value_set14implementation17freeze_nodes_fromEPNS1_13attribute_set14implementationE(ptr noundef nonnull align 8 dereferenceable(320) %2, ptr noundef nonnull %3)
  store ptr null, ptr %2, align 8, !tbaa !26
  br label %5

5:                                                ; preds = %4, %1
  %6 = getelementptr inbounds nuw i8, ptr %2, i64 8
  %7 = load ptr, ptr %6, align 8, !tbaa !27
  %.not3.i = icmp eq ptr %7, null
  br i1 %.not3.i, label %9, label %8

8:                                                ; preds = %5
  tail call void @_ZN5boost3log11v2_mt_posix19attribute_value_set14implementation17freeze_nodes_fromEPNS1_13attribute_set14implementationE(ptr noundef nonnull align 8 dereferenceable(320) %2, ptr noundef nonnull %7)
  store ptr null, ptr %6, align 8, !tbaa !27
  br label %9

9:                                                ; preds = %8, %5
  %10 = getelementptr inbounds nuw i8, ptr %2, i64 16
  %11 = load ptr, ptr %10, align 8, !tbaa !28
  %.not4.i = icmp eq ptr %11, null
  br i1 %.not4.i, label %_ZN5boost3log11v2_mt_posix19attribute_value_set14implementation6freezeEv.exit, label %12

12:                                               ; preds = %9
  tail call void @_ZN5boost3log11v2_mt_posix19attribute_value_set14implementation17freeze_nodes_fromEPNS1_13attribute_set14implementationE(ptr noundef nonnull align 8 dereferenceable(320) %2, ptr noundef nonnull %11)
  store ptr null, ptr %10, align 8, !tbaa !28
  br label %_ZN5boost3log11v2_mt_posix19attribute_value_set14implementation6freezeEv.exit

_ZN5boost3log11v2_mt_posix19attribute_value_set14implementation6freezeEv.exit: ; preds = %9, %12
  ret void
}